target datalayout = "e-m:e-p270:32:32-p271:32:32-p272:64:64-i64:64-i128:128-f80:128-n8:16:32:64-S128"
target triple = "x86_64-pc-linux-gnu"

%"class.enki::TaskScheduler" = type <{ [3 x ptr], [3 x ptr], i32, [4 x i8], ptr, ptr, %"struct.std::atomic", %"struct.std::atomic", %"struct.std::atomic", i8, %"struct.std::atomic.0", %"struct.std::atomic.0", %"struct.std::atomic.0", i32, [4 x i8], ptr, ptr, i32, i8, [3 x i8], %"struct.enki::TaskSchedulerConfig", %"struct.std::atomic.0", [4 x i8] }>
%"struct.std::atomic" = type { %"struct.std::__atomic_base" }
%"struct.std::__atomic_base" = type { i8 }
%"struct.enki::TaskSchedulerConfig" = type { i32, i32, %"struct.enki::ProfilerCallbacks", %"struct.enki::CustomAllocator" }
%"struct.enki::ProfilerCallbacks" = type { ptr, ptr, ptr, ptr, ptr, ptr, ptr, ptr }
%"struct.enki::CustomAllocator" = type { ptr, ptr, ptr }
%"struct.std::atomic.0" = type { %"struct.std::__atomic_base.1" }
%"struct.std::__atomic_base.1" = type { i32 }
%"struct.enki::ThreadDataStore" = type { ptr, %"struct.std::atomic.2", i32, [48 x i8] }
%"struct.std::atomic.2" = type { i32 }

@_ZL13gtl_threadNum = internal thread_local global i32 -1, align 4

; Function Attrs: mustprogress nounwind uwtable
define linkonce_odr dso_local void @_ZNSt6atomicIN4enki11ThreadStateEE5storeES1_St12memory_order(ptr noundef nonnull align 4 dereferenceable(4) %0, i32 noundef %1, i32 noundef %2) #5 comdat align 2 {
  %4 = alloca ptr, align 8
  %5 = alloca i32, align 4
  %6 = alloca i32, align 4
  store ptr %0, ptr %4, align 8, !tbaa !70
  store i32 %1, ptr %5, align 4, !tbaa !26
  store i32 %2, ptr %6, align 4, !tbaa !72
  %7 = load ptr, ptr %4, align 8
  %8 = getelementptr inbounds nuw %"struct.std::atomic.2", ptr %7, i32 0, i32 0
  %9 = load i32, ptr %6, align 4, !tbaa !72
  switch i32 %9, label %10 [
    i32 3, label %12
    i32 5, label %14
  ]

10:                                               ; preds = %3
  %11 = load i32, ptr %5, align 4
  store atomic i32 %11, ptr %8 monotonic, align 4
  br label %16

12:                                               ; preds = %3
  %13 = load i32, ptr %5, align 4
  store atomic i32 %13, ptr %8 release, align 4
  br label %16

14:                                               ; preds = %3
  %15 = load i32, ptr %5, align 4
  store atomic i32 %15, ptr %8 seq_cst, align 4
  br label %16

16:                                               ; preds = %14, %12, %10
  ret void
}

; Function Attrs: mustprogress nounwind uwtable
define linkonce_odr dso_local noundef i32 @_ZNSt13__atomic_baseIiEmmEv(ptr noundef nonnull align 4 dereferenceable(4) %0) #5 comdat align 2 {
  %2 = alloca ptr, align 8
  %3 = alloca i32, align 4
  %4 = alloca i32, align 4
  store ptr %0, ptr %2, align 8, !tbaa !68
  %5 = load ptr, ptr %2, align 8
  %6 = getelementptr inbounds nuw %"struct.std::__atomic_base.1", ptr %5, i32 0, i32 0
  store i32 1, ptr %3, align 4, !tbaa !11
  %7 = load i32, ptr %3, align 4
  %8 = atomicrmw sub ptr %6, i32 %7 seq_cst, align 4
  %9 = sub i32 %8, %7
  store i32 %9, ptr %4, align 4
  %10 = load i32, ptr %4, align 4, !tbaa !11
  ret i32 %10
}

; Function Attrs: mustprogress nounwind uwtable
define linkonce_odr dso_local noundef i32 @_ZNKSt6atomicIN4enki11ThreadStateEE4loadESt12memory_order(ptr noundef nonnull align 4 dereferenceable(4) %0, i32 noundef %1) #5 comdat align 2 {
  %3 = alloca ptr, align 8
  %4 = alloca i32, align 4
  %5 = alloca [4 x i8], align 4
  %6 = alloca ptr, align 8
  store ptr %0, ptr %3, align 8, !tbaa !70
  store i32 %1, ptr %4, align 4, !tbaa !72
  %7 = load ptr, ptr %3, align 8
  call void @llvm.lifetime.start.p0(i64 4, ptr %5) #14
  call void @llvm.lifetime.start.p0(i64 8, ptr %6) #14
  %8 = getelementptr inbounds [4 x i8], ptr %5, i64 0, i64 0
  store ptr %8, ptr %6, align 8, !tbaa !58
  %9 = getelementptr inbounds nuw %"struct.std::atomic.2", ptr %7, i32 0, i32 0
  %10 = load i32, ptr %4, align 4, !tbaa !72
  %11 = load ptr, ptr %6, align 8, !tbaa !58
  switch i32 %10, label %12 [
    i32 1, label %14
    i32 2, label %14
    i32 5, label %16
  ]

12:                                               ; preds = %2
  %13 = load atomic i32, ptr %9 monotonic, align 4
  store i32 %13, ptr %11, align 4
  br label %18

14:                                               ; preds = %2, %2
  %15 = load atomic i32, ptr %9 acquire, align 4
  store i32 %15, ptr %11, align 4
  br label %18

16:                                               ; preds = %2
  %17 = load atomic i32, ptr %9 seq_cst, align 4
  store i32 %17, ptr %11, align 4
  br label %18

18:                                               ; preds = %16, %14, %12
  %19 = load ptr, ptr %6, align 8, !tbaa !58
  %20 = load i32, ptr %19, align 4, !tbaa !26
  call void @llvm.lifetime.end.p0(i64 8, ptr %6) #14
  call void @llvm.lifetime.end.p0(i64 4, ptr %5) #14
  ret i32 %20
}

; Function Attrs: mustprogress nounwind uwtable
define dso_local void @_ZN4enki13TaskScheduler28DeRegisterExternalTaskThreadEv(ptr noundef nonnull align 8 dereferenceable(220) %0) #5 align 2 {
  %2 = alloca ptr, align 8
  %3 = alloca i32, align 4
  store ptr %0, ptr %2, align 8, !tbaa !4
  %4 = load ptr, ptr %2, align 8
  call void @llvm.lifetime.start.p0(i64 4, ptr %3) #14
  %5 = getelementptr inbounds nuw %"class.enki::TaskScheduler", ptr %4, i32 0, i32 4
  %6 = load ptr, ptr %5, align 8, !tbaa !13
  %7 = call align 4 ptr @llvm.threadlocal.address.p0(ptr align 4 @_ZL13gtl_threadNum)
  %8 = load i32, ptr %7, align 4, !tbaa !11
  %9 = zext i32 %8 to i64
  %10 = getelementptr inbounds nuw %"struct.enki::ThreadDataStore", ptr %6, i64 %9
  %11 = getelementptr inbounds nuw %"struct.enki::ThreadDataStore", ptr %10, i32 0, i32 1
  %12 = call noundef i32 @_ZNKSt6atomicIN4enki11ThreadStateEE4loadESt12memory_order(ptr noundef nonnull align 4 dereferenceable(4) %11, i32 noundef 2) #14
  store i32 %12, ptr %3, align 4, !tbaa !26
  %13 = load i32, ptr %3, align 4, !tbaa !26
  %14 = icmp eq i32 %13, 4
  br i1 %14, label %15, label %26

15:                                               ; preds = %1
  %16 = getelementptr inbounds nuw %"class.enki::TaskScheduler", ptr %4, i32 0, i32 21
  %17 = call noundef i32 @_ZNSt13__atomic_baseIiEmmEv(ptr noundef nonnull align 4 dereferenceable(4) %16) #14
  %18 = getelementptr inbounds nuw %"class.enki::TaskScheduler", ptr %4, i32 0, i32 4
  %19 = load ptr, ptr %18, align 8, !tbaa !13
  %20 = call align 4 ptr @llvm.threadlocal.address.p0(ptr align 4 @_ZL13gtl_threadNum)
  %21 = load i32, ptr %20, align 4, !tbaa !11
  %22 = zext i32 %21 to i64
  %23 = getelementptr inbounds nuw %"struct.enki::ThreadDataStore", ptr %19, i64 %22
  %24 = getelementptr inbounds nuw %"struct.enki::ThreadDataStore", ptr %23, i32 0, i32 1
  call void @_ZNSt6atomicIN4enki11ThreadStateEE5storeES1_St12memory_order(ptr noundef nonnull align 4 dereferenceable(4) %24, i32 noundef 5, i32 noundef 3) #14
  %25 = call align 4 ptr @llvm.threadlocal.address.p0(ptr align 4 @_ZL13gtl_threadNum)
  store i32 -1, ptr %25, align 4, !tbaa !11
  br label %26

26:                                               ; preds = %15, %1
  call void @llvm.lifetime.end.p0(i64 4, ptr %3) #14
  ret void
}