; Function Attrs: mustprogress nofree norecurse nounwind willreturn memory(readwrite, inaccessiblemem: none) uwtable
define dso_local void @_ZN4enki13TaskScheduler28DeRegisterExternalTaskThreadEv(ptr noundef nonnull align 8 captures(none) dereferenceable(220) %0) local_unnamed_addr #14 align 2 {
  %2 = getelementptr inbounds nuw i8, ptr %0, i64 56
  %3 = load ptr, ptr %2, align 8, !tbaa !4
  %4 = tail call align 4 ptr @llvm.threadlocal.address.p0(ptr align 4 @_ZL13gtl_threadNum)
  %5 = load i32, ptr %4, align 4, !tbaa !27
  %6 = zext i32 %5 to i64
  %7 = getelementptr inbounds nuw %"struct.enki::ThreadDataStore", ptr %3, i64 %6, i32 1
  %8 = load atomic i32, ptr %7 acquire, align 4
  %9 = icmp eq i32 %8, 4
  br i1 %9, label %10, label %17

10:                                               ; preds = %1
  %11 = getelementptr inbounds nuw i8, ptr %0, i64 216
  %12 = atomicrmw sub ptr %11, i32 1 seq_cst, align 4
  %13 = load ptr, ptr %2, align 8, !tbaa !4
  %14 = load i32, ptr %4, align 4, !tbaa !27
  %15 = zext i32 %14 to i64
  %16 = getelementptr inbounds nuw %"struct.enki::ThreadDataStore", ptr %13, i64 %15, i32 1
  store atomic i32 5, ptr %16 release, align 4
  store i32 -1, ptr %4, align 4, !tbaa !27
  br label %17

17:                                               ; preds = %10, %1
  ret void
}